target datalayout = "e-m:e-p270:32:32-p271:32:32-p272:64:64-i64:64-i128:128-f80:128-n8:16:32:64-S128"
target triple = "x86_64-pc-linux-gnu"

%struct.darktable_t = type { %struct.dt_codepath_t, i32, i32, ptr, ptr, ptr, ptr, ptr, ptr, ptr, ptr, ptr, ptr, ptr, ptr, ptr, ptr, ptr, ptr, ptr, ptr, ptr, ptr, ptr, ptr, ptr, ptr, ptr, ptr, ptr, [64 x %struct.dt_pthread_mutex_t], %struct.dt_pthread_mutex_t, %struct.dt_pthread_mutex_t, %struct.dt_pthread_mutex_t, %struct.dt_pthread_mutex_t, %struct.dt_pthread_mutex_t, ptr, ptr, ptr, ptr, ptr, ptr, ptr, ptr, ptr, ptr, ptr, ptr, ptr, %struct.dt_lua_state_t, ptr, double, ptr, i32, [47 x i32], i32, i32, ptr, ptr, %struct.dt_sys_resources_t, %struct.dt_backthumb_t, %struct.dt_gimp_t }
%struct.dt_codepath_t = type { i8, [3 x i8] }
%struct.dt_pthread_mutex_t = type { %union.pthread_mutex_t }
%union.pthread_mutex_t = type { %struct.__pthread_mutex_s }
%struct.__pthread_mutex_s = type { i32, i32, i32, i32, i32, i16, i16, %struct.__pthread_internal_list }
%struct.__pthread_internal_list = type { ptr, ptr }
%struct.dt_lua_state_t = type { i32 }
%struct.dt_sys_resources_t = type { i64, i64, ptr, ptr, i32 }
%struct.dt_backthumb_t = type { double, double, i32, i32, i32, i32 }
%struct.dt_gimp_t = type { i32, ptr, ptr, i32, i32 }
%struct.dt_control_t = type { i32, ptr, %struct.dt_action_t, %struct.dt_action_t, %struct.dt_action_t, %struct.dt_action_t, %struct.dt_action_t, %struct.dt_action_t, %struct.dt_action_t, %struct.dt_action_t, %struct.dt_action_t, %struct.dt_action_t, %struct.dt_action_t, ptr, ptr, ptr, i32, ptr, i32, i32, ptr, ptr, [256 x i8], i32, double, i32, i32, i64, i32, i32, i32, double, double, i32, i32, i32, i32, i32, i32, [8 x [1000 x i8]], i32, i32, %struct.dt_pthread_mutex_t, i32, i32, [2 x [300 x i8]], i32, i32, %struct.dt_pthread_mutex_t, %struct.dt_pthread_mutex_t, %struct.dt_pthread_mutex_t, double, i32, i32, i32, %struct.dt_pthread_mutex_t, %struct.dt_pthread_mutex_t, %union.pthread_cond_t, i32, ptr, i64, i64, ptr, [5 x ptr], [5 x i64], %struct.dt_pthread_mutex_t, [3 x ptr], [3 x i8], [3 x i64], %struct.anon.0, %struct.anon.2 }
%struct.dt_action_t = type { i32, ptr, ptr, ptr, ptr, ptr }
%union.pthread_cond_t = type { %struct.__pthread_cond_s }
%struct.__pthread_cond_s = type { %union.__atomic_wide_counter, %union.__atomic_wide_counter, [2 x i32], [2 x i32], i32, i32, [2 x i32] }
%union.__atomic_wide_counter = type { i64 }
%struct.anon.0 = type { ptr, i64, i64, double, %struct.dt_pthread_mutex_t, %struct.anon.1 }
%struct.anon.1 = type { ptr, ptr, ptr, ptr, ptr, ptr }
%struct.anon.2 = type { %struct.anon.3 }
%struct.anon.3 = type { ptr, ptr }

@darktable = external global %struct.darktable_t, align 8
@.str.57 = private unnamed_addr constant [2 x i8] c".\00", align 1

; Function Attrs: nounwind uwtable
define ptr @dt_bauhaus_vimkey_complete(ptr noundef %0) #0 {
  %2 = alloca ptr, align 8
  %3 = alloca ptr, align 8
  %4 = alloca ptr, align 8
  %5 = alloca i32, align 4
  %6 = alloca i32, align 4
  store ptr %0, ptr %2, align 8, !tbaa !171
  call void @llvm.lifetime.start.p0(i64 8, ptr %3) #13
  store ptr null, ptr %3, align 8, !tbaa !258
  call void @llvm.lifetime.start.p0(i64 8, ptr %4) #13
  %7 = load ptr, ptr getelementptr inbounds nuw (%struct.darktable_t, ptr @darktable, i32 0, i32 12), align 8, !tbaa !113
  %8 = getelementptr inbounds nuw %struct.dt_control_t, ptr %7, i32 0, i32 8
  %9 = getelementptr inbounds nuw %struct.dt_action_t, ptr %8, i32 0, i32 3
  %10 = load ptr, ptr %9, align 8, !tbaa !292
  store ptr %10, ptr %4, align 8, !tbaa !214
  br label %11

11:                                               ; preds = %88, %86, %1
  %12 = load ptr, ptr %4, align 8, !tbaa !214
  %13 = icmp ne ptr %12, null
  br i1 %13, label %14, label %89

14:                                               ; preds = %11
  call void @llvm.lifetime.start.p0(i64 4, ptr %5) #13
  %15 = load ptr, ptr %2, align 8, !tbaa !171
  %16 = call i64 @strcspn(ptr noundef %15, ptr noundef @.str.57) #16
  %17 = trunc i64 %16 to i32
  store i32 %17, ptr %5, align 4, !tbaa !13
  %18 = load ptr, ptr %4, align 8, !tbaa !214
  %19 = getelementptr inbounds nuw %struct.dt_action_t, ptr %18, i32 0, i32 0
  %20 = load i32, ptr %19, align 8, !tbaa !216
  %21 = icmp uge i32 %20, 14
  br i1 %21, label %27, label %22

22:                                               ; preds = %14
  %23 = load ptr, ptr %4, align 8, !tbaa !214
  %24 = getelementptr inbounds nuw %struct.dt_action_t, ptr %23, i32 0, i32 0
  %25 = load i32, ptr %24, align 8, !tbaa !216
  %26 = icmp ule i32 %25, 6
  br i1 %26, label %27, label %82

27:                                               ; preds = %22, %14
  %28 = load i32, ptr %5, align 4, !tbaa !13
  %29 = icmp ne i32 %28, 0
  br i1 %29, label %30, label %39

30:                                               ; preds = %27
  %31 = load ptr, ptr %4, align 8, !tbaa !214
  %32 = getelementptr inbounds nuw %struct.dt_action_t, ptr %31, i32 0, i32 2
  %33 = load ptr, ptr %32, align 8, !tbaa !293
  %34 = load ptr, ptr %2, align 8, !tbaa !171
  %35 = load i32, ptr %5, align 4, !tbaa !13
  %36 = sext i32 %35 to i64
  %37 = call i32 @strncasecmp(ptr noundef %33, ptr noundef %34, i64 noundef %36) #16
  %38 = icmp ne i32 %37, 0
  br i1 %38, label %81, label %39

39:                                               ; preds = %30, %27
  %40 = load ptr, ptr %4, align 8, !tbaa !214
  %41 = getelementptr inbounds nuw %struct.dt_action_t, ptr %40, i32 0, i32 2
  %42 = load ptr, ptr %41, align 8, !tbaa !293
  %43 = load i32, ptr %5, align 4, !tbaa !13
  %44 = sext i32 %43 to i64
  %45 = getelementptr inbounds i8, ptr %42, i64 %44
  %46 = load i8, ptr %45, align 1, !tbaa !164
  %47 = icmp ne i8 %46, 0
  br i1 %47, label %71, label %48

48:                                               ; preds = %39
  %49 = load ptr, ptr %2, align 8, !tbaa !171
  %50 = load i32, ptr %5, align 4, !tbaa !13
  %51 = sext i32 %50 to i64
  %52 = getelementptr inbounds i8, ptr %49, i64 %51
  %53 = load i8, ptr %52, align 1, !tbaa !164
  %54 = sext i8 %53 to i32
  %55 = icmp eq i32 %54, 46
  br i1 %55, label %56, label %71

56:                                               ; preds = %48
  %57 = load i32, ptr %5, align 4, !tbaa !13
  %58 = add nsw i32 %57, 1
  %59 = load ptr, ptr %2, align 8, !tbaa !171
  %60 = sext i32 %58 to i64
  %61 = getelementptr inbounds i8, ptr %59, i64 %60
  store ptr %61, ptr %2, align 8, !tbaa !171
  %62 = load ptr, ptr %4, align 8, !tbaa !214
  %63 = getelementptr inbounds nuw %struct.dt_action_t, ptr %62, i32 0, i32 0
  %64 = load i32, ptr %63, align 8, !tbaa !216
  %65 = icmp ule i32 %64, 6
  br i1 %65, label %66, label %70

66:                                               ; preds = %56
  %67 = load ptr, ptr %4, align 8, !tbaa !214
  %68 = getelementptr inbounds nuw %struct.dt_action_t, ptr %67, i32 0, i32 3
  %69 = load ptr, ptr %68, align 8, !tbaa !294
  store ptr %69, ptr %4, align 8, !tbaa !214
  br label %70

70:                                               ; preds = %66, %56
  store i32 2, ptr %6, align 4
  br label %86

71:                                               ; preds = %48, %39
  %72 = load ptr, ptr %3, align 8, !tbaa !258
  %73 = load ptr, ptr %4, align 8, !tbaa !214
  %74 = getelementptr inbounds nuw %struct.dt_action_t, ptr %73, i32 0, i32 2
  %75 = load ptr, ptr %74, align 8, !tbaa !293
  %76 = load i32, ptr %5, align 4, !tbaa !13
  %77 = sext i32 %76 to i64
  %78 = getelementptr inbounds i8, ptr %75, i64 %77
  %79 = call ptr @g_list_append(ptr noundef %72, ptr noundef %78)
  store ptr %79, ptr %3, align 8, !tbaa !258
  br label %80

80:                                               ; preds = %71
  br label %81

81:                                               ; preds = %80, %30
  br label %82

82:                                               ; preds = %81, %22
  %83 = load ptr, ptr %4, align 8, !tbaa !214
  %84 = getelementptr inbounds nuw %struct.dt_action_t, ptr %83, i32 0, i32 5
  %85 = load ptr, ptr %84, align 8, !tbaa !295
  store ptr %85, ptr %4, align 8, !tbaa !214
  store i32 0, ptr %6, align 4
  br label %86

86:                                               ; preds = %82, %70
  call void @llvm.lifetime.end.p0(i64 4, ptr %5) #13
  %87 = load i32, ptr %6, align 4
  switch i32 %87, label %91 [
    i32 0, label %88
    i32 2, label %11
  ]

88:                                               ; preds = %86
  br label %11

89:                                               ; preds = %11
  %90 = load ptr, ptr %3, align 8, !tbaa !258
  store i32 1, ptr %6, align 4
  call void @llvm.lifetime.end.p0(i64 8, ptr %4) #13
  call void @llvm.lifetime.end.p0(i64 8, ptr %3) #13
  ret ptr %90

91:                                               ; preds = %86
  unreachable
}