; Function Attrs: nounwind uwtable
define ptr @dt_bauhaus_vimkey_complete(ptr noundef readonly captures(none) %0) local_unnamed_addr #0 {
  %2 = load ptr, ptr getelementptr inbounds nuw (i8, ptr @darktable, i64 88), align 8, !tbaa !91
  %3 = getelementptr inbounds nuw i8, ptr %2, i64 328
  %4 = load ptr, ptr %3, align 8, !tbaa !240
  %.not32 = icmp eq ptr %4, null
  br i1 %.not32, label %._crit_edge, label %.lr.ph

.lr.ph:                                           ; preds = %1, %27
  %.036 = phi ptr [ %.1, %27 ], [ %0, %1 ]
  %.02034 = phi ptr [ %.2, %27 ], [ %4, %1 ]
  %.02233 = phi ptr [ %.224, %27 ], [ null, %1 ]
  %5 = tail call i64 @strcspn(ptr noundef %.036, ptr noundef nonnull @.str.57) #22
  %6 = load i32, ptr %.02034, align 8, !tbaa !176
  %7 = icmp ult i32 %6, 7
  %8 = add i32 %6, -14
  %or.cond = icmp ult i32 %8, -7
  br i1 %or.cond, label %9, label %.sink.split

9:                                                ; preds = %.lr.ph
  %10 = and i64 %5, 4294967295
  %.not27 = icmp eq i64 %10, 0
  %.phi.trans.insert = getelementptr inbounds nuw i8, ptr %.02034, i64 16
  %.pre = load ptr, ptr %.phi.trans.insert, align 8, !tbaa !238
  br i1 %.not27, label %._crit_edge37, label %11

11:                                               ; preds = %9
  %sext = shl i64 %5, 32
  %12 = ashr exact i64 %sext, 32
  %13 = tail call i32 @strncasecmp(ptr noundef %.pre, ptr noundef %.036, i64 noundef %12) #22
  %.not28 = icmp eq i32 %13, 0
  br i1 %.not28, label %._crit_edge37, label %.sink.split

._crit_edge37:                                    ; preds = %9, %11
  %.pre-phi = phi i64 [ %12, %11 ], [ 0, %9 ]
  %sext29.pre-phi = phi i64 [ %sext, %11 ], [ 0, %9 ]
  %14 = getelementptr inbounds i8, ptr %.pre, i64 %.pre-phi
  %15 = load i8, ptr %14, align 1, !tbaa !106
  %.not30 = icmp eq i8 %15, 0
  br i1 %.not30, label %16, label %23

16:                                               ; preds = %._crit_edge37
  %17 = getelementptr inbounds i8, ptr %.036, i64 %.pre-phi
  %18 = load i8, ptr %17, align 1, !tbaa !106
  %19 = icmp eq i8 %18, 46
  br i1 %19, label %20, label %23

20:                                               ; preds = %16
  %sext31 = add i64 %sext29.pre-phi, 4294967296
  %21 = ashr exact i64 %sext31, 32
  %22 = getelementptr inbounds i8, ptr %.036, i64 %21
  br i1 %7, label %.sink.split, label %27

23:                                               ; preds = %16, %._crit_edge37
  %24 = tail call ptr @g_list_append(ptr noundef %.02233, ptr noundef nonnull %14) #19
  br label %.sink.split

.sink.split:                                      ; preds = %23, %11, %.lr.ph, %20
  %.sink40 = phi i64 [ 24, %20 ], [ 40, %.lr.ph ], [ 40, %11 ], [ 40, %23 ]
  %.224.ph = phi ptr [ %.02233, %20 ], [ %.02233, %.lr.ph ], [ %.02233, %11 ], [ %24, %23 ]
  %.1.ph = phi ptr [ %22, %20 ], [ %.036, %.lr.ph ], [ %.036, %11 ], [ %.036, %23 ]
  %25 = getelementptr inbounds nuw i8, ptr %.02034, i64 %.sink40
  %26 = load ptr, ptr %25, align 8, !tbaa !134
  br label %27

27:                                               ; preds = %.sink.split, %20
  %.224 = phi ptr [ %.02233, %20 ], [ %.224.ph, %.sink.split ]
  %.2 = phi ptr [ %.02034, %20 ], [ %26, %.sink.split ]
  %.1 = phi ptr [ %22, %20 ], [ %.1.ph, %.sink.split ]
  %.not = icmp eq ptr %.2, null
  br i1 %.not, label %._crit_edge, label %.lr.ph

._crit_edge:                                      ; preds = %27, %1
  %.022.lcssa = phi ptr [ null, %1 ], [ %.224, %27 ]
  ret ptr %.022.lcssa
}